target datalayout = "e-m:e-p270:32:32-p271:32:32-p272:64:64-i64:64-i128:128-f80:128-n8:16:32:64-S128"
target triple = "x86_64-pc-linux-gnu"

%struct.AVFormatContext = type { ptr, ptr, ptr, ptr, ptr, i32, i32, ptr, i32, ptr, i32, ptr, ptr, i64, i64, i64, i32, i32, i32, i64, i64, ptr, i32, i32, ptr, i32, i32, i32, i32, ptr, i64, i32, i32, %struct.AVIOInterruptCB, i32, i32, i32, i32, i64, i32, i32, i32, i32, i32, i32, i32, i32, i32, i32, i32, i32, i64, i32, i32, i32, i32, i32, ptr, ptr, ptr, ptr, i32, ptr, ptr, ptr, ptr, i32, ptr, ptr, i64, ptr, ptr, ptr, i64 }
%struct.AVIOInterruptCB = type { ptr, ptr }
%struct.AVPacket = type { ptr, i64, i64, ptr, i32, i32, i32, ptr, i32, i64, i64, ptr, ptr, %struct.AVRational }
%struct.AVRational = type { i32, i32 }
%struct.AVStream = type { ptr, i32, i32, ptr, ptr, %struct.AVRational, i64, i64, i64, i32, i32, %struct.AVRational, ptr, %struct.AVRational, %struct.AVPacket, i32, %struct.AVRational, i32 }
%struct.MXFContext = type { ptr, i64, i32, %struct.AVRational, i32, ptr, i32, i64, i8, i32, ptr, i32, i32, i64, %struct.AVTimecode, ptr, i32, i32, i32, i64, i32, [16 x i8], i32, i32, i32, %struct.AVRational, i32, i32, i32, [127 x i8], %struct.MXFStreamContext }
%struct.AVTimecode = type { i32, i32, %struct.AVRational, i32 }
%struct.MXFStreamContext = type { i64, [16 x i8], i32, ptr, ptr, i32, i32, i32, i32, i32, i32, i32, i32, i32, %struct.AVRational, i32, i32, i32, i32, i32, i32, i32, i32, i32, i32, %struct.j2k_info_t }
%struct.j2k_info_t = type { i16, i16, i32, i32, i32, i32, i32, i32, i32, i32, [12 x i8] }

@.str.56 = private unnamed_addr constant [28 x i8] c"essence container count:%d\0A\00", align 1
@multiple_desc_ul = internal constant [16 x i8] c"\06\0E+4\04\01\01\03\0D\01\03\01\02\7F\01\00", align 16

; Function Attrs: nounwind uwtable
define internal void @mxf_write_refs_count(ptr noundef %0, i32 noundef %1) #0 {
  %3 = alloca ptr, align 8
  %4 = alloca i32, align 4
  store ptr %0, ptr %3, align 8, !tbaa !31
  store i32 %1, ptr %4, align 4, !tbaa !57
  %5 = load ptr, ptr %3, align 8, !tbaa !31
  %6 = load i32, ptr %4, align 4, !tbaa !57
  call void @avio_wb32(ptr noundef %5, i32 noundef %6)
  %7 = load ptr, ptr %3, align 8, !tbaa !31
  call void @avio_wb32(ptr noundef %7, i32 noundef 16)
  ret void
}

; Function Attrs: nounwind uwtable
define internal void @mxf_write_essence_container_refs(ptr noundef %0) #0 {
  %2 = alloca ptr, align 8
  %3 = alloca ptr, align 8
  %4 = alloca ptr, align 8
  %5 = alloca i32, align 4
  %6 = alloca ptr, align 8
  %7 = alloca i32, align 4
  store ptr %0, ptr %2, align 8, !tbaa !4
  call void @llvm.lifetime.start.p0(i64 8, ptr %3) #13
  %8 = load ptr, ptr %2, align 8, !tbaa !4
  %9 = getelementptr inbounds nuw %struct.AVFormatContext, ptr %8, i32 0, i32 3
  %10 = load ptr, ptr %9, align 8, !tbaa !11
  store ptr %10, ptr %3, align 8, !tbaa !28
  call void @llvm.lifetime.start.p0(i64 8, ptr %4) #13
  %11 = load ptr, ptr %2, align 8, !tbaa !4
  %12 = getelementptr inbounds nuw %struct.AVFormatContext, ptr %11, i32 0, i32 4
  %13 = load ptr, ptr %12, align 8, !tbaa !30
  store ptr %13, ptr %4, align 8, !tbaa !31
  call void @llvm.lifetime.start.p0(i64 4, ptr %5) #13
  %14 = load ptr, ptr %4, align 8, !tbaa !31
  %15 = load ptr, ptr %3, align 8, !tbaa !28
  %16 = getelementptr inbounds nuw %struct.MXFContext, ptr %15, i32 0, i32 2
  %17 = load i32, ptr %16, align 8, !tbaa !133
  %18 = icmp sgt i32 %17, 1
  br i1 %18, label %19, label %24

19:                                               ; preds = %1
  %20 = load ptr, ptr %3, align 8, !tbaa !28
  %21 = getelementptr inbounds nuw %struct.MXFContext, ptr %20, i32 0, i32 2
  %22 = load i32, ptr %21, align 8, !tbaa !133
  %23 = add nsw i32 %22, 1
  br label %28

24:                                               ; preds = %1
  %25 = load ptr, ptr %3, align 8, !tbaa !28
  %26 = getelementptr inbounds nuw %struct.MXFContext, ptr %25, i32 0, i32 2
  %27 = load i32, ptr %26, align 8, !tbaa !133
  br label %28

28:                                               ; preds = %24, %19
  %29 = phi i32 [ %23, %19 ], [ %27, %24 ]
  call void @mxf_write_refs_count(ptr noundef %14, i32 noundef %29)
  %30 = load ptr, ptr %2, align 8, !tbaa !4
  %31 = load ptr, ptr %3, align 8, !tbaa !28
  %32 = getelementptr inbounds nuw %struct.MXFContext, ptr %31, i32 0, i32 2
  %33 = load i32, ptr %32, align 8, !tbaa !133
  call void (ptr, i32, ptr, ...) @av_log(ptr noundef %30, i32 noundef 48, ptr noundef @.str.56, i32 noundef %33)
  store i32 0, ptr %5, align 4, !tbaa !57
  br label %34

34:                                               ; preds = %72, %28
  %35 = load i32, ptr %5, align 4, !tbaa !57
  %36 = load ptr, ptr %2, align 8, !tbaa !4
  %37 = getelementptr inbounds nuw %struct.AVFormatContext, ptr %36, i32 0, i32 6
  %38 = load i32, ptr %37, align 4, !tbaa !87
  %39 = icmp ult i32 %35, %38
  br i1 %39, label %40, label %75

40:                                               ; preds = %34
  call void @llvm.lifetime.start.p0(i64 8, ptr %6) #13
  %41 = load ptr, ptr %2, align 8, !tbaa !4
  %42 = getelementptr inbounds nuw %struct.AVFormatContext, ptr %41, i32 0, i32 7
  %43 = load ptr, ptr %42, align 8, !tbaa !32
  %44 = load i32, ptr %5, align 4, !tbaa !57
  %45 = sext i32 %44 to i64
  %46 = getelementptr inbounds ptr, ptr %43, i64 %45
  %47 = load ptr, ptr %46, align 8, !tbaa !38
  %48 = getelementptr inbounds nuw %struct.AVStream, ptr %47, i32 0, i32 4
  %49 = load ptr, ptr %48, align 8, !tbaa !40
  store ptr %49, ptr %6, align 8, !tbaa !43
  %50 = load ptr, ptr %6, align 8, !tbaa !43
  %51 = getelementptr inbounds nuw %struct.MXFStreamContext, ptr %50, i32 0, i32 1
  %52 = getelementptr inbounds [16 x i8], ptr %51, i64 0, i64 15
  %53 = load i8, ptr %52, align 1, !tbaa !132
  %54 = zext i8 %53 to i32
  %55 = icmp ne i32 %54, 0
  br i1 %55, label %56, label %57

56:                                               ; preds = %40
  store i32 4, ptr %7, align 4
  br label %69

57:                                               ; preds = %40
  %58 = load ptr, ptr %4, align 8, !tbaa !31
  %59 = load ptr, ptr %6, align 8, !tbaa !43
  %60 = getelementptr inbounds nuw %struct.MXFStreamContext, ptr %59, i32 0, i32 4
  %61 = load ptr, ptr %60, align 8, !tbaa !119
  %62 = getelementptr inbounds [16 x i8], ptr %61, i64 0, i64 0
  call void @avio_write(ptr noundef %58, ptr noundef %62, i32 noundef 16)
  %63 = load ptr, ptr %3, align 8, !tbaa !28
  %64 = getelementptr inbounds nuw %struct.MXFContext, ptr %63, i32 0, i32 2
  %65 = load i32, ptr %64, align 8, !tbaa !133
  %66 = icmp eq i32 %65, 1
  br i1 %66, label %67, label %68

67:                                               ; preds = %57
  store i32 2, ptr %7, align 4
  br label %69

68:                                               ; preds = %57
  store i32 0, ptr %7, align 4
  br label %69

69:                                               ; preds = %68, %67, %56
  call void @llvm.lifetime.end.p0(i64 8, ptr %6) #13
  %70 = load i32, ptr %7, align 4
  switch i32 %70, label %83 [
    i32 0, label %71
    i32 4, label %72
    i32 2, label %75
  ]

71:                                               ; preds = %69
  br label %72

72:                                               ; preds = %71, %69
  %73 = load i32, ptr %5, align 4, !tbaa !57
  %74 = add nsw i32 %73, 1
  store i32 %74, ptr %5, align 4, !tbaa !57
  br label %34, !llvm.loop !234

75:                                               ; preds = %69, %34
  %76 = load ptr, ptr %3, align 8, !tbaa !28
  %77 = getelementptr inbounds nuw %struct.MXFContext, ptr %76, i32 0, i32 2
  %78 = load i32, ptr %77, align 8, !tbaa !133
  %79 = icmp sgt i32 %78, 1
  br i1 %79, label %80, label %82

80:                                               ; preds = %75
  %81 = load ptr, ptr %4, align 8, !tbaa !31
  call void @avio_write(ptr noundef %81, ptr noundef @multiple_desc_ul, i32 noundef 16)
  br label %82

82:                                               ; preds = %80, %75
  call void @llvm.lifetime.end.p0(i64 4, ptr %5) #13
  call void @llvm.lifetime.end.p0(i64 8, ptr %4) #13
  call void @llvm.lifetime.end.p0(i64 8, ptr %3) #13
  ret void

83:                                               ; preds = %69
  unreachable
}