; Function Attrs: nounwind uwtable
define internal fastcc void @mxf_write_essence_container_refs(ptr noundef %0) unnamed_addr #0 {
  %2 = getelementptr inbounds nuw i8, ptr %0, i64 24
  %3 = load ptr, ptr %2, align 8, !tbaa !4
  %4 = getelementptr inbounds nuw i8, ptr %0, i64 32
  %5 = load ptr, ptr %4, align 8, !tbaa !24
  %6 = getelementptr inbounds nuw i8, ptr %3, i64 16
  %7 = load i32, ptr %6, align 8, !tbaa !133
  %8 = icmp sgt i32 %7, 1
  %9 = zext i1 %8 to i32
  %10 = add nuw nsw i32 %7, %9
  tail call void @avio_wb32(ptr noundef %5, i32 noundef %10) #14
  tail call void @avio_wb32(ptr noundef %5, i32 noundef 16) #14
  %11 = load i32, ptr %6, align 8, !tbaa !133
  tail call void (ptr, i32, ptr, ...) @av_log(ptr noundef %0, i32 noundef 48, ptr noundef nonnull @.str.56, i32 noundef %11) #14
  %12 = getelementptr inbounds nuw i8, ptr %0, i64 44
  %13 = load i32, ptr %12, align 4, !tbaa !121
  %.not25 = icmp eq i32 %13, 0
  br i1 %.not25, label %thread-pre-split, label %.lr.ph

.lr.ph:                                           ; preds = %1
  %14 = getelementptr inbounds nuw i8, ptr %0, i64 48
  br label %15

15:                                               ; preds = %.lr.ph, %.thread
  %16 = phi i32 [ %13, %.lr.ph ], [ %29, %.thread ]
  %indvars.iv = phi i64 [ 0, %.lr.ph ], [ %indvars.iv.next, %.thread ]
  %17 = load ptr, ptr %14, align 8, !tbaa !25
  %18 = getelementptr inbounds nuw ptr, ptr %17, i64 %indvars.iv
  %19 = load ptr, ptr %18, align 8, !tbaa !31
  %20 = getelementptr inbounds nuw i8, ptr %19, i64 24
  %21 = load ptr, ptr %20, align 8, !tbaa !33
  %22 = getelementptr inbounds nuw i8, ptr %21, i64 23
  %23 = load i8, ptr %22, align 1, !tbaa !54
  %.not = icmp eq i8 %23, 0
  br i1 %.not, label %24, label %.thread

24:                                               ; preds = %15
  %25 = getelementptr inbounds nuw i8, ptr %21, i64 40
  %26 = load ptr, ptr %25, align 8, !tbaa !78
  tail call void @avio_write(ptr noundef %5, ptr noundef %26, i32 noundef 16) #14
  %27 = load i32, ptr %6, align 8, !tbaa !133
  %28 = icmp eq i32 %27, 1
  br i1 %28, label %.critedge, label %..thread_crit_edge

..thread_crit_edge:                               ; preds = %24
  %.pre = load i32, ptr %12, align 4, !tbaa !121
  br label %.thread

.thread:                                          ; preds = %..thread_crit_edge, %15
  %29 = phi i32 [ %.pre, %..thread_crit_edge ], [ %16, %15 ]
  %indvars.iv.next = add nuw nsw i64 %indvars.iv, 1
  %30 = zext i32 %29 to i64
  %31 = icmp samesign ult i64 %indvars.iv.next, %30
  br i1 %31, label %15, label %thread-pre-split, !llvm.loop !239

thread-pre-split:                                 ; preds = %.thread, %1
  %.pr = load i32, ptr %6, align 8, !tbaa !133
  %32 = icmp sgt i32 %.pr, 1
  br i1 %32, label %33, label %.critedge

33:                                               ; preds = %thread-pre-split
  tail call void @avio_write(ptr noundef %5, ptr noundef nonnull @multiple_desc_ul, i32 noundef 16) #14
  br label %.critedge

.critedge:                                        ; preds = %24, %33, %thread-pre-split
  ret void
}